Archive member included to satisfy reference by file (symbol)

C:/avr8-gnu-toolchain-win32_x86_64/bin/../lib/gcc/avr/15.1.0/avr51\libgcc.a(_divmodsi4.o)
                              E:\C Sessions\EmbeddedDriversWithDS\release\HAL\LCD_128\LCD_Program.c.o (__divmodsi4)
C:/avr8-gnu-toolchain-win32_x86_64/bin/../lib/gcc/avr/15.1.0/avr51\libgcc.a(_negsi2.o)
                              C:/avr8-gnu-toolchain-win32_x86_64/bin/../lib/gcc/avr/15.1.0/avr51\libgcc.a(_divmodsi4.o) (__negsi2)
C:/avr8-gnu-toolchain-win32_x86_64/bin/../lib/gcc/avr/15.1.0/avr51\libgcc.a(_exit.o)
                              C:/avr8-gnu-toolchain-win32_x86_64/bin/../lib/gcc/avr/15.1.0/../../../../avr/lib/avr51/crtatmega128.o (exit)
C:/avr8-gnu-toolchain-win32_x86_64/bin/../lib/gcc/avr/15.1.0/avr51\libgcc.a(_tablejump2.o)
                              E:\C Sessions\EmbeddedDriversWithDS\release\MCAL\DIO\DIO_Program.c.o (__tablejump2__)
C:/avr8-gnu-toolchain-win32_x86_64/bin/../lib/gcc/avr/15.1.0/avr51\libgcc.a(_copy_data.o)
                              E:\C Sessions\EmbeddedDriversWithDS\release\HAL\LCD_128\LCD_Program.c.o (__do_copy_data)
C:/avr8-gnu-toolchain-win32_x86_64/bin/../lib/gcc/avr/15.1.0/avr51\libgcc.a(_udivmodsi4.o)
                              C:/avr8-gnu-toolchain-win32_x86_64/bin/../lib/gcc/avr/15.1.0/avr51\libgcc.a(_divmodsi4.o) (__udivmodsi4)

There are no discarded input sections

Memory Configuration

Name             Origin             Length             Attributes
text             0x00000000         0x00020000         xr
data             0x00800100         0x00001000         rw!x
eeprom           0x00810000         0x00001000         rw!x
fuse             0x00820000         0x00000003         rw!x
lock             0x00830000         0x00000400         rw!x
signature        0x00840000         0x00000400         rw!x
user_signatures  0x00850000         0x00000400         rw!x
*default*        0x00000000         0xffffffff

Linker script and memory map

Address of section .data set to 0x800100
LOAD C:/avr8-gnu-toolchain-win32_x86_64/bin/../lib/gcc/avr/15.1.0/../../../../avr/lib/avr51/crtatmega128.o
LOAD E:\C Sessions\EmbeddedDriversWithDS\release\HAL\LCD_128\LCD_Program.c.o
LOAD E:\C Sessions\EmbeddedDriversWithDS\release\main.c.o
LOAD E:\C Sessions\EmbeddedDriversWithDS\release\MCAL\DIO\DIO_Program.c.o
START GROUP
LOAD C:/avr8-gnu-toolchain-win32_x86_64/bin/../lib/gcc/avr/15.1.0/avr51\libgcc.a
LOAD C:/avr8-gnu-toolchain-win32_x86_64/bin/../lib/gcc/avr/15.1.0/../../../../avr/lib/avr51\libm.a
LOAD C:/avr8-gnu-toolchain-win32_x86_64/bin/../lib/gcc/avr/15.1.0/../../../../avr/lib/avr51\libc.a
LOAD C:/avr8-gnu-toolchain-win32_x86_64/bin/../lib/gcc/avr/15.1.0/../../../../avr/lib/avr51\libatmega128.a
END GROUP
                [0x00000000]                      __TEXT_REGION_ORIGIN__ = DEFINED (__TEXT_REGION_ORIGIN__)?__TEXT_REGION_ORIGIN__:0x0
                [0x00020000]                      __TEXT_REGION_LENGTH__ = DEFINED (__TEXT_REGION_LENGTH__)?__TEXT_REGION_LENGTH__:0x20000
                [0x00800100]                      __DATA_REGION_ORIGIN__ = DEFINED (__DATA_REGION_ORIGIN__)?__DATA_REGION_ORIGIN__:0x800100
                [0x00001000]                      __DATA_REGION_LENGTH__ = DEFINED (__DATA_REGION_LENGTH__)?__DATA_REGION_LENGTH__:0xff00
                [0x00001000]                      __EEPROM_REGION_LENGTH__ = DEFINED (__EEPROM_REGION_LENGTH__)?__EEPROM_REGION_LENGTH__:0x10000
                [0x00000003]                      __FUSE_REGION_LENGTH__ = DEFINED (__FUSE_REGION_LENGTH__)?__FUSE_REGION_LENGTH__:0x400
                0x00000400                        __LOCK_REGION_LENGTH__ = DEFINED (__LOCK_REGION_LENGTH__)?__LOCK_REGION_LENGTH__:0x400
                0x00000400                        __SIGNATURE_REGION_LENGTH__ = DEFINED (__SIGNATURE_REGION_LENGTH__)?__SIGNATURE_REGION_LENGTH__:0x400
                0x00000400                        __USER_SIGNATURE_REGION_LENGTH__ = DEFINED (__USER_SIGNATURE_REGION_LENGTH__)?__USER_SIGNATURE_REGION_LENGTH__:0x400

.hash
 *(.hash)

.dynsym
 *(.dynsym)

.dynstr
 *(.dynstr)

.gnu.version
 *(.gnu.version)

.gnu.version_d
 *(.gnu.version_d)

.gnu.version_r
 *(.gnu.version_r)

.rel.init
 *(.rel.init)

.rela.init
 *(.rela.init)

.rel.text
 *(.rel.text)
 *(.rel.text.*)
 *(.rel.gnu.linkonce.t*)

.rela.text
 *(.rela.text)
 *(.rela.text.*)
 *(.rela.gnu.linkonce.t*)

.rel.fini
 *(.rel.fini)

.rela.fini
 *(.rela.fini)

.rel.rodata
 *(.rel.rodata)
 *(.rel.rodata.*)
 *(.rel.gnu.linkonce.r*)

.rela.rodata
 *(.rela.rodata)
 *(.rela.rodata.*)
 *(.rela.gnu.linkonce.r*)

.rel.data
 *(.rel.data)
 *(.rel.data.*)
 *(.rel.gnu.linkonce.d*)

.rela.data
 *(.rela.data)
 *(.rela.data.*)
 *(.rela.gnu.linkonce.d*)

.rel.ctors
 *(.rel.ctors)

.rela.ctors
 *(.rela.ctors)

.rel.dtors
 *(.rel.dtors)

.rela.dtors
 *(.rela.dtors)

.rel.got
 *(.rel.got)

.rela.got
 *(.rela.got)

.rel.bss
 *(.rel.bss)

.rela.bss
 *(.rela.bss)

.rel.plt
 *(.rel.plt)

.rela.plt
 *(.rela.plt)

.text           0x00000000      0x956
 *(.vectors)
 .vectors       0x00000000       0x8c C:/avr8-gnu-toolchain-win32_x86_64/bin/../lib/gcc/avr/15.1.0/../../../../avr/lib/avr51/crtatmega128.o
                0x00000000                __vector_default
                0x00000000                __vectors
 *(.vectors)
 *(.progmem.gcc*)
                0x0000008c                        . = ALIGN (0x2)
                0x0000008c                        __trampolines_start = .
 *(.trampolines)
 .trampolines   0x0000008c        0x0 linker stubs
 *(.trampolines*)
                0x0000008c                        __trampolines_end = .
 *libprintf_flt.a:*(.progmem.data)
 *libc.a:*(.progmem.data)
 *(.progmem.*)
                0x0000008c                        . = ALIGN (0x2)
 *(.lowtext)
 *(.lowtext*)
                0x0000008c                        __ctors_start = .
 *(.ctors)
                0x0000008c                        __ctors_end = .
                0x0000008c                        __dtors_start = .
 *(.dtors)
                0x0000008c                        __dtors_end = .
 SORT_BY_NAME(*)(.ctors)
 SORT_BY_NAME(*)(.dtors)
 *(.init0)
 .init0         0x0000008c        0x0 C:/avr8-gnu-toolchain-win32_x86_64/bin/../lib/gcc/avr/15.1.0/../../../../avr/lib/avr51/crtatmega128.o
                0x0000008c                __init
 *(.init0)
 *(.init1)
 *(.init1)
 *(.init2)
 .init2         0x0000008c        0xc C:/avr8-gnu-toolchain-win32_x86_64/bin/../lib/gcc/avr/15.1.0/../../../../avr/lib/avr51/crtatmega128.o
 *(.init2)
 *(.init3)
 *(.init3)
 *(.init4)
 .init4         0x00000098       0x1a C:/avr8-gnu-toolchain-win32_x86_64/bin/../lib/gcc/avr/15.1.0/avr51\libgcc.a(_copy_data.o)
                0x00000098                __do_copy_data
 *(.init4)
 *(.init5)
 *(.init5)
 *(.init6)
 *(.init6)
 *(.init7)
 *(.init7)
 *(.init8)
 *(.init8)
 *(.init9)
 .init9         0x000000b2        0x8 C:/avr8-gnu-toolchain-win32_x86_64/bin/../lib/gcc/avr/15.1.0/../../../../avr/lib/avr51/crtatmega128.o
 *(.init9)
 *(.text)
 .text          0x000000ba        0x4 C:/avr8-gnu-toolchain-win32_x86_64/bin/../lib/gcc/avr/15.1.0/../../../../avr/lib/avr51/crtatmega128.o
                0x000000ba                __vector_22
                0x000000ba                __vector_28
                0x000000ba                __vector_1
                0x000000ba                __vector_32
                0x000000ba                __vector_34
                0x000000ba                __vector_24
                0x000000ba                __vector_12
                0x000000ba                __bad_interrupt
                0x000000ba                __vector_6
                0x000000ba                __vector_31
                0x000000ba                __vector_3
                0x000000ba                __vector_23
                0x000000ba                __vector_30
                0x000000ba                __vector_25
                0x000000ba                __vector_11
                0x000000ba                __vector_13
                0x000000ba                __vector_17
                0x000000ba                __vector_19
                0x000000ba                __vector_7
                0x000000ba                __vector_27
                0x000000ba                __vector_5
                0x000000ba                __vector_33
                0x000000ba                __vector_4
                0x000000ba                __vector_9
                0x000000ba                __vector_2
                0x000000ba                __vector_21
                0x000000ba                __vector_15
                0x000000ba                __vector_29
                0x000000ba                __vector_8
                0x000000ba                __vector_26
                0x000000ba                __vector_14
                0x000000ba                __vector_10
                0x000000ba                __vector_16
                0x000000ba                __vector_18
                0x000000ba                __vector_20
 .text          0x000000be      0x324 E:\C Sessions\EmbeddedDriversWithDS\release\HAL\LCD_128\LCD_Program.c.o
                0x000000be                hLCD_SendCommand
                0x00000138                hLCD_Init
                0x000001e8                hLCD_SetCursor
                0x00000208                hLCD_WriteChar
                0x00000282                hLCD_Clear
                0x000002ba                hLCD_WriteString
                0x000002ea                hLCD_WriteNumber
 .text          0x000003e2        0x0 E:\C Sessions\EmbeddedDriversWithDS\release\main.c.o
 .text          0x000003e2      0x438 E:\C Sessions\EmbeddedDriversWithDS\release\MCAL\DIO\DIO_Program.c.o
                0x000003e2                mDIO_SetDirectionForPin
                0x0000052c                mDIO_SetDirectionForGroup
                0x0000055e                mDIO_WritePin
                0x000006a8                mDIO_WriteGroup
                0x000006da                mDIO_TogglePin
                0x00000778                mDIO_ReadPin
                0x000007c6                mDIO_ReadGroup
 .text          0x0000081a        0x0 C:/avr8-gnu-toolchain-win32_x86_64/bin/../lib/gcc/avr/15.1.0/avr51\libgcc.a(_divmodsi4.o)
 .text          0x0000081a        0x0 C:/avr8-gnu-toolchain-win32_x86_64/bin/../lib/gcc/avr/15.1.0/avr51\libgcc.a(_negsi2.o)
 .text          0x0000081a        0x0 C:/avr8-gnu-toolchain-win32_x86_64/bin/../lib/gcc/avr/15.1.0/avr51\libgcc.a(_exit.o)
 .text          0x0000081a        0x0 C:/avr8-gnu-toolchain-win32_x86_64/bin/../lib/gcc/avr/15.1.0/avr51\libgcc.a(_tablejump2.o)
 .text          0x0000081a        0x0 C:/avr8-gnu-toolchain-win32_x86_64/bin/../lib/gcc/avr/15.1.0/avr51\libgcc.a(_copy_data.o)
 .text          0x0000081a        0x0 C:/avr8-gnu-toolchain-win32_x86_64/bin/../lib/gcc/avr/15.1.0/avr51\libgcc.a(_udivmodsi4.o)
                0x0000081a                        . = ALIGN (0x2)
 *(.text.*)
 .text.startup  0x0000081a       0x26 E:\C Sessions\EmbeddedDriversWithDS\release\main.c.o
                0x0000081a                main
 .text.libgcc.mul
                0x00000840        0x0 C:/avr8-gnu-toolchain-win32_x86_64/bin/../lib/gcc/avr/15.1.0/avr51\libgcc.a(_divmodsi4.o)
 .text.libgcc.div
                0x00000840       0x2e C:/avr8-gnu-toolchain-win32_x86_64/bin/../lib/gcc/avr/15.1.0/avr51\libgcc.a(_divmodsi4.o)
                0x00000840                __divmodsi4
 .text.libgcc   0x0000086e        0x0 C:/avr8-gnu-toolchain-win32_x86_64/bin/../lib/gcc/avr/15.1.0/avr51\libgcc.a(_divmodsi4.o)
 .text.libgcc.prologue
                0x0000086e        0x0 C:/avr8-gnu-toolchain-win32_x86_64/bin/../lib/gcc/avr/15.1.0/avr51\libgcc.a(_divmodsi4.o)
 .text.libgcc.builtins
                0x0000086e        0x0 C:/avr8-gnu-toolchain-win32_x86_64/bin/../lib/gcc/avr/15.1.0/avr51\libgcc.a(_divmodsi4.o)
 .text.libgcc.fmul
                0x0000086e        0x0 C:/avr8-gnu-toolchain-win32_x86_64/bin/../lib/gcc/avr/15.1.0/avr51\libgcc.a(_divmodsi4.o)
 .text.libgcc.fixed
                0x0000086e        0x0 C:/avr8-gnu-toolchain-win32_x86_64/bin/../lib/gcc/avr/15.1.0/avr51\libgcc.a(_divmodsi4.o)
 .text.libgcc.mul
                0x0000086e        0x0 C:/avr8-gnu-toolchain-win32_x86_64/bin/../lib/gcc/avr/15.1.0/avr51\libgcc.a(_negsi2.o)
 .text.libgcc.div
                0x0000086e       0x10 C:/avr8-gnu-toolchain-win32_x86_64/bin/../lib/gcc/avr/15.1.0/avr51\libgcc.a(_negsi2.o)
                0x0000086e                __negsi2
 .text.libgcc   0x0000087e        0x0 C:/avr8-gnu-toolchain-win32_x86_64/bin/../lib/gcc/avr/15.1.0/avr51\libgcc.a(_negsi2.o)
 .text.libgcc.prologue
                0x0000087e        0x0 C:/avr8-gnu-toolchain-win32_x86_64/bin/../lib/gcc/avr/15.1.0/avr51\libgcc.a(_negsi2.o)
 .text.libgcc.builtins
                0x0000087e        0x0 C:/avr8-gnu-toolchain-win32_x86_64/bin/../lib/gcc/avr/15.1.0/avr51\libgcc.a(_negsi2.o)
 .text.libgcc.fmul
                0x0000087e        0x0 C:/avr8-gnu-toolchain-win32_x86_64/bin/../lib/gcc/avr/15.1.0/avr51\libgcc.a(_negsi2.o)
 .text.libgcc.fixed
                0x0000087e        0x0 C:/avr8-gnu-toolchain-win32_x86_64/bin/../lib/gcc/avr/15.1.0/avr51\libgcc.a(_negsi2.o)
 .text.libgcc.mul
                0x0000087e        0x0 C:/avr8-gnu-toolchain-win32_x86_64/bin/../lib/gcc/avr/15.1.0/avr51\libgcc.a(_exit.o)
 .text.libgcc.div
                0x0000087e        0x0 C:/avr8-gnu-toolchain-win32_x86_64/bin/../lib/gcc/avr/15.1.0/avr51\libgcc.a(_exit.o)
 .text.libgcc   0x0000087e        0x0 C:/avr8-gnu-toolchain-win32_x86_64/bin/../lib/gcc/avr/15.1.0/avr51\libgcc.a(_exit.o)
 .text.libgcc.prologue
                0x0000087e        0x0 C:/avr8-gnu-toolchain-win32_x86_64/bin/../lib/gcc/avr/15.1.0/avr51\libgcc.a(_exit.o)
 .text.libgcc.builtins
                0x0000087e        0x0 C:/avr8-gnu-toolchain-win32_x86_64/bin/../lib/gcc/avr/15.1.0/avr51\libgcc.a(_exit.o)
 .text.libgcc.fmul
                0x0000087e        0x0 C:/avr8-gnu-toolchain-win32_x86_64/bin/../lib/gcc/avr/15.1.0/avr51\libgcc.a(_exit.o)
 .text.libgcc.fixed
                0x0000087e        0x0 C:/avr8-gnu-toolchain-win32_x86_64/bin/../lib/gcc/avr/15.1.0/avr51\libgcc.a(_exit.o)
 .text.libgcc.mul
                0x0000087e        0x0 C:/avr8-gnu-toolchain-win32_x86_64/bin/../lib/gcc/avr/15.1.0/avr51\libgcc.a(_tablejump2.o)
 .text.libgcc.div
                0x0000087e        0x0 C:/avr8-gnu-toolchain-win32_x86_64/bin/../lib/gcc/avr/15.1.0/avr51\libgcc.a(_tablejump2.o)
 .text.libgcc   0x0000087e       0x12 C:/avr8-gnu-toolchain-win32_x86_64/bin/../lib/gcc/avr/15.1.0/avr51\libgcc.a(_tablejump2.o)
                0x0000087e                __tablejump2__
 .text.libgcc.prologue
                0x00000890        0x0 C:/avr8-gnu-toolchain-win32_x86_64/bin/../lib/gcc/avr/15.1.0/avr51\libgcc.a(_tablejump2.o)
 .text.libgcc.builtins
                0x00000890        0x0 C:/avr8-gnu-toolchain-win32_x86_64/bin/../lib/gcc/avr/15.1.0/avr51\libgcc.a(_tablejump2.o)
 .text.libgcc.fmul
                0x00000890        0x0 C:/avr8-gnu-toolchain-win32_x86_64/bin/../lib/gcc/avr/15.1.0/avr51\libgcc.a(_tablejump2.o)
 .text.libgcc.fixed
                0x00000890        0x0 C:/avr8-gnu-toolchain-win32_x86_64/bin/../lib/gcc/avr/15.1.0/avr51\libgcc.a(_tablejump2.o)
 .text.libgcc.mul
                0x00000890        0x0 C:/avr8-gnu-toolchain-win32_x86_64/bin/../lib/gcc/avr/15.1.0/avr51\libgcc.a(_copy_data.o)
 .text.libgcc.div
                0x00000890        0x0 C:/avr8-gnu-toolchain-win32_x86_64/bin/../lib/gcc/avr/15.1.0/avr51\libgcc.a(_copy_data.o)
 .text.libgcc   0x00000890        0x0 C:/avr8-gnu-toolchain-win32_x86_64/bin/../lib/gcc/avr/15.1.0/avr51\libgcc.a(_copy_data.o)
 .text.libgcc.prologue
                0x00000890        0x0 C:/avr8-gnu-toolchain-win32_x86_64/bin/../lib/gcc/avr/15.1.0/avr51\libgcc.a(_copy_data.o)
 .text.libgcc.builtins
                0x00000890        0x0 C:/avr8-gnu-toolchain-win32_x86_64/bin/../lib/gcc/avr/15.1.0/avr51\libgcc.a(_copy_data.o)
 .text.libgcc.fmul
                0x00000890        0x0 C:/avr8-gnu-toolchain-win32_x86_64/bin/../lib/gcc/avr/15.1.0/avr51\libgcc.a(_copy_data.o)
 .text.libgcc.fixed
                0x00000890        0x0 C:/avr8-gnu-toolchain-win32_x86_64/bin/../lib/gcc/avr/15.1.0/avr51\libgcc.a(_copy_data.o)
 .text.libgcc.mul
                0x00000890        0x0 C:/avr8-gnu-toolchain-win32_x86_64/bin/../lib/gcc/avr/15.1.0/avr51\libgcc.a(_udivmodsi4.o)
 .text.libgcc.div
                0x00000890       0x44 C:/avr8-gnu-toolchain-win32_x86_64/bin/../lib/gcc/avr/15.1.0/avr51\libgcc.a(_udivmodsi4.o)
                0x00000890                __udivmodsi4
 .text.libgcc   0x000008d4        0x0 C:/avr8-gnu-toolchain-win32_x86_64/bin/../lib/gcc/avr/15.1.0/avr51\libgcc.a(_udivmodsi4.o)
 .text.libgcc.prologue
                0x000008d4        0x0 C:/avr8-gnu-toolchain-win32_x86_64/bin/../lib/gcc/avr/15.1.0/avr51\libgcc.a(_udivmodsi4.o)
 .text.libgcc.builtins
                0x000008d4        0x0 C:/avr8-gnu-toolchain-win32_x86_64/bin/../lib/gcc/avr/15.1.0/avr51\libgcc.a(_udivmodsi4.o)
 .text.libgcc.fmul
                0x000008d4        0x0 C:/avr8-gnu-toolchain-win32_x86_64/bin/../lib/gcc/avr/15.1.0/avr51\libgcc.a(_udivmodsi4.o)
 .text.libgcc.fixed
                0x000008d4        0x0 C:/avr8-gnu-toolchain-win32_x86_64/bin/../lib/gcc/avr/15.1.0/avr51\libgcc.a(_udivmodsi4.o)
                0x000008d4                        . = ALIGN (0x2)
 *(.fini9)
 .fini9         0x000008d4        0x0 C:/avr8-gnu-toolchain-win32_x86_64/bin/../lib/gcc/avr/15.1.0/avr51\libgcc.a(_exit.o)
                0x000008d4                _exit
                0x000008d4                exit
 *(.fini9)
 *(.fini8)
 *(.fini8)
 *(.fini7)
 *(.fini7)
 *(.fini6)
 *(.fini6)
 *(.fini5)
 *(.fini5)
 *(.fini4)
 *(.fini4)
 *(.fini3)
 *(.fini3)
 *(.fini2)
 *(.fini2)
 *(.fini1)
 *(.fini1)
 *(.fini0)
 .fini0         0x000008d4        0x4 C:/avr8-gnu-toolchain-win32_x86_64/bin/../lib/gcc/avr/15.1.0/avr51\libgcc.a(_exit.o)
 *(.fini0)
 *(.hightext)
 *(.hightext*)
 *(.progmemx.*)
                0x000008d8                        . = ALIGN (0x2)
 *(.jumptables)
 *(.jumptables*)
 .jumptables.gcc.mDIO_SetDirectionForPin
                0x000008d8       0x1c E:\C Sessions\EmbeddedDriversWithDS\release\MCAL\DIO\DIO_Program.c.o
 .jumptables.gcc.mDIO_SetDirectionForGroup
                0x000008f4        0xe E:\C Sessions\EmbeddedDriversWithDS\release\MCAL\DIO\DIO_Program.c.o
 .jumptables.gcc.mDIO_WritePin
                0x00000902       0x1c E:\C Sessions\EmbeddedDriversWithDS\release\MCAL\DIO\DIO_Program.c.o
 .jumptables.gcc.mDIO_WriteGroup
                0x0000091e        0xe E:\C Sessions\EmbeddedDriversWithDS\release\MCAL\DIO\DIO_Program.c.o
 .jumptables.gcc.mDIO_TogglePin
                0x0000092c        0xe E:\C Sessions\EmbeddedDriversWithDS\release\MCAL\DIO\DIO_Program.c.o
 .jumptables.gcc.mDIO_ReadPin
                0x0000093a        0xe E:\C Sessions\EmbeddedDriversWithDS\release\MCAL\DIO\DIO_Program.c.o
 .jumptables.gcc.mDIO_ReadGroup
                0x00000948        0xe E:\C Sessions\EmbeddedDriversWithDS\release\MCAL\DIO\DIO_Program.c.o
                0x00000956                        _etext = .

.data           0x00800100       0x3e load address 0x00000956
                0x00800100                        PROVIDE (__data_start = .)
 *(.data)
 .data          0x00800100        0x0 C:/avr8-gnu-toolchain-win32_x86_64/bin/../lib/gcc/avr/15.1.0/../../../../avr/lib/avr51/crtatmega128.o
 .data          0x00800100        0x0 E:\C Sessions\EmbeddedDriversWithDS\release\HAL\LCD_128\LCD_Program.c.o
 .data          0x00800100        0x0 E:\C Sessions\EmbeddedDriversWithDS\release\main.c.o
 .data          0x00800100        0x0 E:\C Sessions\EmbeddedDriversWithDS\release\MCAL\DIO\DIO_Program.c.o
 .data          0x00800100        0x0 C:/avr8-gnu-toolchain-win32_x86_64/bin/../lib/gcc/avr/15.1.0/avr51\libgcc.a(_divmodsi4.o)
 .data          0x00800100        0x0 C:/avr8-gnu-toolchain-win32_x86_64/bin/../lib/gcc/avr/15.1.0/avr51\libgcc.a(_negsi2.o)
 .data          0x00800100        0x0 C:/avr8-gnu-toolchain-win32_x86_64/bin/../lib/gcc/avr/15.1.0/avr51\libgcc.a(_exit.o)
 .data          0x00800100        0x0 C:/avr8-gnu-toolchain-win32_x86_64/bin/../lib/gcc/avr/15.1.0/avr51\libgcc.a(_tablejump2.o)
 .data          0x00800100        0x0 C:/avr8-gnu-toolchain-win32_x86_64/bin/../lib/gcc/avr/15.1.0/avr51\libgcc.a(_copy_data.o)
 .data          0x00800100        0x0 C:/avr8-gnu-toolchain-win32_x86_64/bin/../lib/gcc/avr/15.1.0/avr51\libgcc.a(_udivmodsi4.o)
 *(.data*)
 *(.gnu.linkonce.d*)
 *(.rodata)
 *(.rodata*)
 .rodata.str1.1
                0x00800100       0x3e E:\C Sessions\EmbeddedDriversWithDS\release\HAL\LCD_128\LCD_Program.c.o
                                 0x11 (size before relaxing)
 .rodata.str1.1
                0x0080013e       0x2d E:\C Sessions\EmbeddedDriversWithDS\release\main.c.o
 *(.gnu.linkonce.r*)
                0x0080016c                        . = ALIGN (0x2)
                0x0080013e                        _edata = .
                0x0080013e                        PROVIDE (__data_end = .)

.bss            0x0080013e        0x0
                [!provide]                        PROVIDE (__bss_start = .)
 *(.bss)
 .bss           0x0080013e        0x0 C:/avr8-gnu-toolchain-win32_x86_64/bin/../lib/gcc/avr/15.1.0/../../../../avr/lib/avr51/crtatmega128.o
 .bss           0x0080013e        0x0 E:\C Sessions\EmbeddedDriversWithDS\release\HAL\LCD_128\LCD_Program.c.o
 .bss           0x0080013e        0x0 E:\C Sessions\EmbeddedDriversWithDS\release\main.c.o
 .bss           0x0080013e        0x0 E:\C Sessions\EmbeddedDriversWithDS\release\MCAL\DIO\DIO_Program.c.o
 .bss           0x0080013e        0x0 C:/avr8-gnu-toolchain-win32_x86_64/bin/../lib/gcc/avr/15.1.0/avr51\libgcc.a(_divmodsi4.o)
 .bss           0x0080013e        0x0 C:/avr8-gnu-toolchain-win32_x86_64/bin/../lib/gcc/avr/15.1.0/avr51\libgcc.a(_negsi2.o)
 .bss           0x0080013e        0x0 C:/avr8-gnu-toolchain-win32_x86_64/bin/../lib/gcc/avr/15.1.0/avr51\libgcc.a(_exit.o)
 .bss           0x0080013e        0x0 C:/avr8-gnu-toolchain-win32_x86_64/bin/../lib/gcc/avr/15.1.0/avr51\libgcc.a(_tablejump2.o)
 .bss           0x0080013e        0x0 C:/avr8-gnu-toolchain-win32_x86_64/bin/../lib/gcc/avr/15.1.0/avr51\libgcc.a(_copy_data.o)
 .bss           0x0080013e        0x0 C:/avr8-gnu-toolchain-win32_x86_64/bin/../lib/gcc/avr/15.1.0/avr51\libgcc.a(_udivmodsi4.o)
 *(.bss*)
 *(COMMON)
                [!provide]                        PROVIDE (__bss_end = .)
                0x00000956                        __data_load_start = LOADADDR (.data)
                0x00000994                        __data_load_end = (__data_load_start + SIZEOF (.data))

.noinit         0x0080013e        0x0
                [!provide]                        PROVIDE (__noinit_start = .)
 *(.noinit .noinit.* .gnu.linkonce.n.*)
                [!provide]                        PROVIDE (__noinit_end = .)
                0x0080013e                        _end = .
                [!provide]                        PROVIDE (__heap_start = .)
                0x00000000                        __flmap_init_label = DEFINED (__flmap_noinit_start)?__flmap_noinit_start:0x0
                0x00000000                        __flmap = DEFINED (__flmap)?__flmap:0x0

.eeprom         0x00810000        0x0
 *(.eeprom*)
                0x00810000                        __eeprom_end = .

.fuse
 *(.fuse)
 *(.lfuse)
 *(.hfuse)
 *(.efuse)

.lock
 *(.lock*)

.signature
 *(.signature*)

.stab
 *(.stab)

.stabstr
 *(.stabstr)

.stab.excl
 *(.stab.excl)

.stab.exclstr
 *(.stab.exclstr)

.stab.index
 *(.stab.index)

.stab.indexstr
 *(.stab.indexstr)

.comment        0x00000000       0x2f
 *(.comment)
 .comment       0x00000000       0x2f E:\C Sessions\EmbeddedDriversWithDS\release\HAL\LCD_128\LCD_Program.c.o
                                 0x30 (size before relaxing)
 .comment       0x0000002f       0x30 E:\C Sessions\EmbeddedDriversWithDS\release\main.c.o
 .comment       0x0000002f       0x30 E:\C Sessions\EmbeddedDriversWithDS\release\MCAL\DIO\DIO_Program.c.o

.note.gnu.avr.deviceinfo
                0x00000000       0x3c
 .note.gnu.avr.deviceinfo
                0x00000000       0x3c C:/avr8-gnu-toolchain-win32_x86_64/bin/../lib/gcc/avr/15.1.0/../../../../avr/lib/avr51/crtatmega128.o

.gnu.build.attributes
 *(.gnu.build.attributes .gnu.build.attributes.*)

.note.gnu.build-id
 *(.note.gnu.build-id)

.debug
 *(.debug)

.line
 *(.line)

.debug_srcinfo
 *(.debug_srcinfo)

.debug_sfnames
 *(.debug_sfnames)

.debug_aranges
 *(.debug_aranges)

.debug_pubnames
 *(.debug_pubnames)

.debug_info     0x00000000      0x780
 *(.debug_info .gnu.linkonce.wi.*)
 .debug_info    0x00000000      0x780 C:/avr8-gnu-toolchain-win32_x86_64/bin/../lib/gcc/avr/15.1.0/../../../../avr/lib/avr51/crtatmega128.o

.debug_abbrev   0x00000000      0x718
 *(.debug_abbrev)
 .debug_abbrev  0x00000000      0x718 C:/avr8-gnu-toolchain-win32_x86_64/bin/../lib/gcc/avr/15.1.0/../../../../avr/lib/avr51/crtatmega128.o

.debug_line     0x00000000       0x1d
 *(.debug_line .debug_line.* .debug_line_end)
 .debug_line    0x00000000       0x1d C:/avr8-gnu-toolchain-win32_x86_64/bin/../lib/gcc/avr/15.1.0/../../../../avr/lib/avr51/crtatmega128.o

.debug_frame
 *(.debug_frame)

.debug_str      0x00000000      0x27d
 *(.debug_str)
 .debug_str     0x00000000      0x27d C:/avr8-gnu-toolchain-win32_x86_64/bin/../lib/gcc/avr/15.1.0/../../../../avr/lib/avr51/crtatmega128.o

.debug_loc
 *(.debug_loc)

.debug_macinfo
 *(.debug_macinfo)

.debug_weaknames
 *(.debug_weaknames)

.debug_funcnames
 *(.debug_funcnames)

.debug_typenames
 *(.debug_typenames)

.debug_varnames
 *(.debug_varnames)

.debug_pubtypes
 *(.debug_pubtypes)

.debug_ranges
 *(.debug_ranges)

.debug_addr
 *(.debug_addr)

.debug_line_str
 *(.debug_line_str)

.debug_loclists
 *(.debug_loclists)

.debug_macro
 *(.debug_macro)

.debug_names
 *(.debug_names)

.debug_rnglists
 *(.debug_rnglists)

.debug_str_offsets
 *(.debug_str_offsets)

.debug_sup
 *(.debug_sup)
OUTPUT(E:\C Sessions\EmbeddedDriversWithDS\release\firmware.elf elf32-avr)
LOAD linker stubs
